target datalayout = "e-m:e-p270:32:32-p271:32:32-p272:64:64-i64:64-i128:128-f80:128-n8:16:32:64-S128"
target triple = "x86_64-pc-linux-gnu"

%"class.vcg::Color4" = type { %"class.vcg::Point4" }
%"class.vcg::Point4" = type { [4 x i8] }
%class.EditPaintPlugin = type { %class.QObject, %class.EditTool, [16 x double], [16 x double], [4 x i32], ptr, ptr, ptr, ptr, ptr, %"class.std::vector.16", %"class.vcg::Point3", %"class.std::vector.21", %"class.std::vector.21", %"class.std::vector.21", %"class.std::vector.21", i32, i32, %"struct.EditPaintPlugin::InputEvent", %"struct.EditPaintPlugin::InputEvent", %"struct.EditPaintPlugin::Brush", %class.QHash, %"class.vcg::Color4", ptr, ptr, %class.QPoint, %class.QPoint, %class.QPoint, i32, i32, float, %class.QHash.26, %class.QPoint, %class.QHash.28 }
%class.QObject = type { ptr, %class.QScopedPointer }
%class.QScopedPointer = type { ptr }
%class.EditTool = type { %class.MeshLabPluginLogger }
%class.MeshLabPluginLogger = type { ptr, ptr }
%"class.std::vector.16" = type { %"struct.std::_Vector_base.17" }
%"struct.std::_Vector_base.17" = type { %"struct.std::_Vector_base<std::pair<CVertexO *, EditPaintPlugin::PickingData>, std::allocator<std::pair<CVertexO *, EditPaintPlugin::PickingData>>>::_Vector_impl" }
%"struct.std::_Vector_base<std::pair<CVertexO *, EditPaintPlugin::PickingData>, std::allocator<std::pair<CVertexO *, EditPaintPlugin::PickingData>>>::_Vector_impl" = type { %"struct.std::_Vector_base<std::pair<CVertexO *, EditPaintPlugin::PickingData>, std::allocator<std::pair<CVertexO *, EditPaintPlugin::PickingData>>>::_Vector_impl_data" }
%"struct.std::_Vector_base<std::pair<CVertexO *, EditPaintPlugin::PickingData>, std::allocator<std::pair<CVertexO *, EditPaintPlugin::PickingData>>>::_Vector_impl_data" = type { ptr, ptr, ptr }
%"class.vcg::Point3" = type { [3 x float] }
%"class.std::vector.21" = type { %"struct.std::_Vector_base.22" }
%"struct.std::_Vector_base.22" = type { %"struct.std::_Vector_base<QPointF, std::allocator<QPointF>>::_Vector_impl" }
%"struct.std::_Vector_base<QPointF, std::allocator<QPointF>>::_Vector_impl" = type { %"struct.std::_Vector_base<QPointF, std::allocator<QPointF>>::_Vector_impl_data" }
%"struct.std::_Vector_base<QPointF, std::allocator<QPointF>>::_Vector_impl_data" = type { ptr, ptr, ptr }
%"struct.EditPaintPlugin::InputEvent" = type <{ i32, i32, %class.QPoint, %class.QPoint, %class.QFlags, [4 x i8], double, i8, i8, [6 x i8] }>
%class.QFlags = type { i32 }
%"struct.EditPaintPlugin::Brush" = type { i32, i32, i32, float, i8, i8, i8 }
%class.QHash = type { %union.anon }
%union.anon = type { ptr }
%class.QHash.26 = type { %union.anon.27 }
%union.anon.27 = type { ptr }
%class.QPoint = type { i32, i32 }
%class.QHash.28 = type { %union.anon.29 }
%union.anon.29 = type { ptr }

; Function Attrs: mustprogress uwtable
define void @_ZN15EditPaintPlugin11setToolTypeE8ToolType(ptr noundef nonnull align 8 dereferenceable(704) %0, i32 noundef %1) #5 align 2 {
  %3 = alloca ptr, align 8
  %4 = alloca i32, align 4
  store ptr %0, ptr %3, align 8
  store i32 %1, ptr %4, align 4
  %5 = load ptr, ptr %3, align 8
  %6 = load i32, ptr %4, align 4
  %7 = getelementptr inbounds %class.EditPaintPlugin, ptr %5, i32 0, i32 16
  store i32 %6, ptr %7, align 8
  %8 = getelementptr inbounds %class.EditPaintPlugin, ptr %5, i32 0, i32 16
  %9 = load i32, ptr %8, align 8
  switch i32 %9, label %17 [
    i32 7, label %10
    i32 0, label %12
    i32 6, label %12
    i32 4, label %12
    i32 3, label %12
    i32 8, label %12
    i32 10, label %14
    i32 9, label %14
    i32 1, label %16
    i32 2, label %16
    i32 5, label %16
  ]

10:                                               ; preds = %2
  %11 = getelementptr inbounds %class.EditPaintPlugin, ptr %5, i32 0, i32 17
  store i32 9, ptr %11, align 4
  call void @_ZN15EditPaintPlugin21setSelectionRenderingEb(ptr noundef nonnull align 8 dereferenceable(704) %5, i1 noundef zeroext true)
  br label %19

12:                                               ; preds = %2, %2, %2, %2, %2
  %13 = getelementptr inbounds %class.EditPaintPlugin, ptr %5, i32 0, i32 17
  store i32 11, ptr %13, align 4
  br label %19

14:                                               ; preds = %2, %2
  %15 = getelementptr inbounds %class.EditPaintPlugin, ptr %5, i32 0, i32 17
  store i32 15, ptr %15, align 4
  br label %19

16:                                               ; preds = %2, %2, %2
  br label %17

17:                                               ; preds = %16, %2
  %18 = getelementptr inbounds %class.EditPaintPlugin, ptr %5, i32 0, i32 17
  store i32 0, ptr %18, align 4
  br label %19

19:                                               ; preds = %17, %14, %12, %10
  ret void
}