; Function Attrs: mustprogress uwtable
define void @_ZN15EditPaintPlugin11setToolTypeE8ToolType(ptr noundef nonnull align 8 dereferenceable(704) %0, i32 noundef %1) local_unnamed_addr #9 align 2 {
  %3 = getelementptr inbounds i8, ptr %0, i64 480
  store i32 %1, ptr %3, align 8
  switch i32 %1, label %10 [
    i32 7, label %4
    i32 0, label %6
    i32 6, label %6
    i32 4, label %6
    i32 3, label %6
    i32 8, label %6
    i32 10, label %8
    i32 9, label %8
  ]

4:                                                ; preds = %2
  %5 = getelementptr inbounds i8, ptr %0, i64 484
  store i32 9, ptr %5, align 4
  tail call void @_ZN15EditPaintPlugin21setSelectionRenderingEb(ptr noundef nonnull align 8 dereferenceable(704) %0, i1 noundef zeroext true)
  br label %12

6:                                                ; preds = %2, %2, %2, %2, %2
  %7 = getelementptr inbounds i8, ptr %0, i64 484
  store i32 11, ptr %7, align 4
  br label %12

8:                                                ; preds = %2, %2
  %9 = getelementptr inbounds i8, ptr %0, i64 484
  store i32 15, ptr %9, align 4
  br label %12

10:                                               ; preds = %2
  %11 = getelementptr inbounds i8, ptr %0, i64 484
  store i32 0, ptr %11, align 4
  br label %12

12:                                               ; preds = %10, %8, %6, %4
  ret void
}